target datalayout = "e-m:e-p270:32:32-p271:32:32-p272:64:64-i64:64-i128:128-f80:128-n8:16:32:64-S128"
target triple = "x86_64-pc-linux-gnu"

%struct._zval_struct = type { %union._zend_value, %union.anon.0, %union.anon.3 }
%union._zend_value = type { i64 }
%union.anon.0 = type { i32 }
%union.anon.3 = type { i32 }
%struct._zend_array = type { %struct._zend_refcounted_h, %union.anon.5, i32, %union.anon.7, i32, i32, i32, i32, i64, ptr }
%struct._zend_refcounted_h = type { i32, %union.anon }
%union.anon = type { i32 }
%union.anon.5 = type { i32 }
%union.anon.7 = type { ptr }
%struct._zend_object = type { %struct._zend_refcounted_h, i32, ptr, ptr, ptr, [1 x %struct._zval_struct] }
%struct._zend_class_entry = type { i8, ptr, %union.anon.4, i32, i32, i32, i32, ptr, ptr, ptr, %struct._zend_array, %struct._zend_array, %struct._zend_array, ptr, ptr, ptr, ptr, ptr, ptr, ptr, ptr, ptr, ptr, ptr, ptr, ptr, ptr, ptr, ptr, ptr, ptr, ptr, %union.anon.8, ptr, ptr, ptr, ptr, i32, i32, %union.anon.9, ptr, ptr, ptr, ptr, i32, ptr, ptr, %union.anon.10 }
%union.anon.4 = type { ptr }
%union.anon.8 = type { ptr }
%union.anon.9 = type { ptr }
%union.anon.10 = type { %struct.anon.11 }
%struct.anon.11 = type { ptr, i32, i32 }
%struct._zend_string = type { %struct._zend_refcounted_h, i64, i64, [1 x i8] }

; Function Attrs: nounwind uwtable
define internal void @zend_std_call_getter(ptr noundef %0, ptr noundef %1, ptr noundef %2) #0 {
  %4 = alloca ptr, align 8
  %5 = alloca ptr, align 8
  %6 = alloca ptr, align 8
  %7 = alloca i32, align 4
  %8 = alloca ptr, align 8
  %9 = alloca ptr, align 8
  %10 = alloca ptr, align 8
  %11 = alloca ptr, align 8
  %12 = alloca ptr, align 8
  %13 = alloca i32, align 4
  %14 = alloca ptr, align 8
  %15 = alloca ptr, align 8
  %16 = alloca ptr, align 8
  %17 = alloca %struct._zval_struct, align 8
  %18 = alloca ptr, align 8
  %19 = alloca ptr, align 8
  store ptr %0, ptr %14, align 8
  store ptr %1, ptr %15, align 8
  store ptr %2, ptr %16, align 8
  br label %20

20:                                               ; preds = %3
  store ptr %17, ptr %18, align 8
  %21 = load ptr, ptr %15, align 8
  store ptr %21, ptr %19, align 8
  %22 = load ptr, ptr %19, align 8
  %23 = load ptr, ptr %18, align 8
  %24 = getelementptr inbounds %struct._zval_struct, ptr %23, i32 0, i32 0
  store ptr %22, ptr %24, align 8
  %25 = load ptr, ptr %19, align 8
  %26 = getelementptr inbounds %struct._zend_string, ptr %25, i32 0, i32 0
  %27 = getelementptr inbounds %struct._zend_refcounted_h, ptr %26, i32 0, i32 1
  %28 = load i32, ptr %27, align 4
  store i32 %28, ptr %13, align 4
  %29 = load i32, ptr %13, align 4
  %30 = and i32 %29, 1008
  %31 = and i32 %30, 64
  %32 = icmp ne i32 %31, 0
  %33 = select i1 %32, i32 6, i32 262
  %34 = load ptr, ptr %18, align 8
  %35 = getelementptr inbounds %struct._zval_struct, ptr %34, i32 0, i32 1
  store i32 %33, ptr %35, align 8
  br label %36

36:                                               ; preds = %20
  %37 = load ptr, ptr %14, align 8
  %38 = getelementptr inbounds %struct._zend_object, ptr %37, i32 0, i32 2
  %39 = load ptr, ptr %38, align 8
  %40 = getelementptr inbounds %struct._zend_class_entry, ptr %39, i32 0, i32 19
  %41 = load ptr, ptr %40, align 8
  %42 = load ptr, ptr %14, align 8
  %43 = load ptr, ptr %16, align 8
  store ptr %41, ptr %9, align 8
  store ptr %42, ptr %10, align 8
  store ptr %43, ptr %11, align 8
  store ptr %17, ptr %12, align 8
  %44 = load ptr, ptr %9, align 8
  %45 = load ptr, ptr %10, align 8
  %46 = load ptr, ptr %11, align 8
  %47 = load ptr, ptr %12, align 8
  store ptr %44, ptr %4, align 8
  store ptr %45, ptr %5, align 8
  store ptr %46, ptr %6, align 8
  store i32 1, ptr %7, align 4
  store ptr %47, ptr %8, align 8
  %48 = load ptr, ptr %4, align 8
  %49 = load ptr, ptr %5, align 8
  %50 = load ptr, ptr %5, align 8
  %51 = getelementptr inbounds %struct._zend_object, ptr %50, i32 0, i32 2
  %52 = load ptr, ptr %51, align 8
  %53 = load ptr, ptr %6, align 8
  %54 = load i32, ptr %7, align 4
  %55 = load ptr, ptr %8, align 8
  call void @zend_call_known_function(ptr noundef %48, ptr noundef %49, ptr noundef %52, ptr noundef %53, i32 noundef %54, ptr noundef %55, ptr noundef null) #10
  ret void
}