; Function Attrs: nounwind uwtable
define internal fastcc void @zend_std_call_getter(ptr noundef %0, ptr noundef %1, ptr noundef %2) unnamed_addr #0 {
  %4 = alloca %struct._zval_struct, align 8
  store ptr %1, ptr %4, align 8
  %5 = getelementptr inbounds i8, ptr %1, i64 4
  %6 = load i32, ptr %5, align 4
  %7 = and i32 %6, 64
  %.not = icmp eq i32 %7, 0
  %8 = select i1 %.not, i32 262, i32 6
  %9 = getelementptr inbounds i8, ptr %4, i64 8
  store i32 %8, ptr %9, align 8
  %10 = getelementptr inbounds i8, ptr %0, i64 16
  %11 = load ptr, ptr %10, align 8
  %12 = getelementptr inbounds i8, ptr %11, i64 280
  %13 = load ptr, ptr %12, align 8
  call void @zend_call_known_function(ptr noundef %13, ptr noundef %0, ptr noundef %11, ptr noundef %2, i32 noundef 1, ptr noundef nonnull %4, ptr noundef null) #15
  ret void
}